target datalayout = "e-m:e-p270:32:32-p271:32:32-p272:64:64-i64:64-i128:128-f80:128-n8:16:32:64-S128"
target triple = "x86_64-pc-linux-gnu"

%struct.repository = type { ptr, ptr, ptr, ptr, ptr, %struct.strmap, %struct.strmap, %struct.repo_path_cache, ptr, ptr, ptr, ptr, %struct.repo_settings, ptr, ptr, ptr, ptr, ptr, ptr, i32, i32, i32, ptr, ptr, i32, i32, i8 }
%struct.strmap = type { %struct.hashmap, ptr, i8 }
%struct.hashmap = type { ptr, ptr, ptr, i32, i32, i32, i32, i8 }
%struct.repo_path_cache = type { ptr, ptr, ptr, ptr, ptr, ptr, ptr }
%struct.repo_settings = type { i32, i32, i32, i32, i32, i32, i32, i32, i32, i32, i32, i32, ptr, i32, i32, i32, i32, i32, i32, i32, i64, i64, i64 }
%struct.index_state = type { ptr, i32, i32, i32, i32, ptr, ptr, ptr, %struct.cache_time, i8, i32, %struct.hashmap, %struct.hashmap, %struct.object_id, ptr, ptr, ptr, ptr, ptr, ptr, ptr }
%struct.cache_time = type { i32, i32 }
%struct.object_id = type { [32 x i8], i32 }
%struct.pattern_list = type { i32, i32, ptr, ptr, i32, i32, %struct.hashmap, %struct.hashmap }

@.str = private unnamed_addr constant [13 x i8] c"index.sparse\00", align 1
@.str.1 = private unnamed_addr constant [5 x i8] c"true\00", align 1
@.str.2 = private unnamed_addr constant [6 x i8] c"false\00", align 1
@core_apply_sparse_checkout = external global i32, align 4
@core_sparse_checkout_cone = external global i32, align 4
@.str.3 = private unnamed_addr constant [21 x i8] c"GIT_TEST_SPLIT_INDEX\00", align 1
@.str.4 = private unnamed_addr constant [22 x i8] c"GIT_TEST_SPARSE_INDEX\00", align 1

; Function Attrs: nounwind uwtable
define dso_local i32 @set_sparse_index_config(ptr noundef %0, i32 noundef %1) #0 {
  %3 = alloca ptr, align 8
  %4 = alloca i32, align 4
  %5 = alloca i32, align 4
  store ptr %0, ptr %3, align 8, !tbaa !4
  store i32 %1, ptr %4, align 4, !tbaa !9
  call void @llvm.lifetime.start.p0(i64 4, ptr %5) #9
  %6 = load ptr, ptr %3, align 8, !tbaa !4
  %7 = load i32, ptr %4, align 4, !tbaa !9
  %8 = icmp ne i32 %7, 0
  %9 = select i1 %8, ptr @.str.1, ptr @.str.2
  %10 = call i32 @repo_config_set_worktree_gently(ptr noundef %6, ptr noundef @.str, ptr noundef %9)
  store i32 %10, ptr %5, align 4, !tbaa !9
  %11 = load ptr, ptr %3, align 8, !tbaa !4
  call void @prepare_repo_settings(ptr noundef %11)
  %12 = load i32, ptr %4, align 4, !tbaa !9
  %13 = load ptr, ptr %3, align 8, !tbaa !4
  %14 = getelementptr inbounds nuw %struct.repository, ptr %13, i32 0, i32 12
  %15 = getelementptr inbounds nuw %struct.repo_settings, ptr %14, i32 0, i32 7
  store i32 %12, ptr %15, align 4, !tbaa !11
  %16 = load i32, ptr %5, align 4, !tbaa !9
  call void @llvm.lifetime.end.p0(i64 4, ptr %5) #9
  ret i32 %16
}

; Function Attrs: nounwind uwtable
define dso_local i32 @is_sparse_index_allowed(ptr noundef %0, i32 noundef %1) #0 {
  %3 = alloca i32, align 4
  %4 = alloca ptr, align 8
  %5 = alloca i32, align 4
  %6 = alloca i32, align 4
  %7 = alloca i32, align 4
  store ptr %0, ptr %4, align 8, !tbaa !31
  store i32 %1, ptr %5, align 4, !tbaa !9
  %8 = load i32, ptr @core_apply_sparse_checkout, align 4, !tbaa !9
  %9 = icmp ne i32 %8, 0
  br i1 %9, label %10, label %13

10:                                               ; preds = %2
  %11 = load i32, ptr @core_sparse_checkout_cone, align 4, !tbaa !9
  %12 = icmp ne i32 %11, 0
  br i1 %12, label %14, label %13

13:                                               ; preds = %10, %2
  store i32 0, ptr %3, align 4
  br label %67

14:                                               ; preds = %10
  %15 = load i32, ptr %5, align 4, !tbaa !9
  %16 = and i32 %15, 1
  %17 = icmp ne i32 %16, 0
  br i1 %17, label %53, label %18

18:                                               ; preds = %14
  call void @llvm.lifetime.start.p0(i64 4, ptr %6) #9
  %19 = load ptr, ptr %4, align 8, !tbaa !31
  %20 = getelementptr inbounds nuw %struct.index_state, ptr %19, i32 0, i32 7
  %21 = load ptr, ptr %20, align 8, !tbaa !32
  %22 = icmp ne ptr %21, null
  br i1 %22, label %26, label %23

23:                                               ; preds = %18
  %24 = call i32 @git_env_bool(ptr noundef @.str.3, i32 noundef 0)
  %25 = icmp ne i32 %24, 0
  br i1 %25, label %26, label %27

26:                                               ; preds = %23, %18
  store i32 0, ptr %3, align 4
  store i32 1, ptr %7, align 4
  br label %50

27:                                               ; preds = %23
  %28 = call i32 @git_env_bool(ptr noundef @.str.4, i32 noundef -1)
  store i32 %28, ptr %6, align 4, !tbaa !9
  %29 = load i32, ptr %6, align 4, !tbaa !9
  %30 = icmp sge i32 %29, 0
  br i1 %30, label %31, label %37

31:                                               ; preds = %27
  %32 = load ptr, ptr %4, align 8, !tbaa !31
  %33 = getelementptr inbounds nuw %struct.index_state, ptr %32, i32 0, i32 19
  %34 = load ptr, ptr %33, align 8, !tbaa !44
  %35 = load i32, ptr %6, align 4, !tbaa !9
  %36 = call i32 @set_sparse_index_config(ptr noundef %34, i32 noundef %35)
  br label %37

37:                                               ; preds = %31, %27
  %38 = load ptr, ptr %4, align 8, !tbaa !31
  %39 = getelementptr inbounds nuw %struct.index_state, ptr %38, i32 0, i32 19
  %40 = load ptr, ptr %39, align 8, !tbaa !44
  call void @prepare_repo_settings(ptr noundef %40)
  %41 = load ptr, ptr %4, align 8, !tbaa !31
  %42 = getelementptr inbounds nuw %struct.index_state, ptr %41, i32 0, i32 19
  %43 = load ptr, ptr %42, align 8, !tbaa !44
  %44 = getelementptr inbounds nuw %struct.repository, ptr %43, i32 0, i32 12
  %45 = getelementptr inbounds nuw %struct.repo_settings, ptr %44, i32 0, i32 7
  %46 = load i32, ptr %45, align 4, !tbaa !11
  %47 = icmp ne i32 %46, 0
  br i1 %47, label %49, label %48

48:                                               ; preds = %37
  store i32 0, ptr %3, align 4
  store i32 1, ptr %7, align 4
  br label %50

49:                                               ; preds = %37
  store i32 0, ptr %7, align 4
  br label %50

50:                                               ; preds = %49, %48, %26
  call void @llvm.lifetime.end.p0(i64 4, ptr %6) #9
  %51 = load i32, ptr %7, align 4
  switch i32 %51, label %69 [
    i32 0, label %52
    i32 1, label %67
  ]

52:                                               ; preds = %50
  br label %53

53:                                               ; preds = %52, %14
  %54 = load ptr, ptr %4, align 8, !tbaa !31
  %55 = call i32 @init_sparse_checkout_patterns(ptr noundef %54)
  %56 = icmp ne i32 %55, 0
  br i1 %56, label %57, label %58

57:                                               ; preds = %53
  store i32 0, ptr %3, align 4
  br label %67

58:                                               ; preds = %53
  %59 = load ptr, ptr %4, align 8, !tbaa !31
  %60 = getelementptr inbounds nuw %struct.index_state, ptr %59, i32 0, i32 20
  %61 = load ptr, ptr %60, align 8, !tbaa !45
  %62 = getelementptr inbounds nuw %struct.pattern_list, ptr %61, i32 0, i32 4
  %63 = load i32, ptr %62, align 8, !tbaa !46
  %64 = icmp ne i32 %63, 0
  br i1 %64, label %66, label %65

65:                                               ; preds = %58
  store i32 0, ptr %3, align 4
  br label %67

66:                                               ; preds = %58
  store i32 1, ptr %3, align 4
  br label %67

67:                                               ; preds = %66, %65, %57, %50, %13
  %68 = load i32, ptr %3, align 4
  ret i32 %68

69:                                               ; preds = %50
  unreachable
}