; Function Attrs: nounwind uwtable
define dso_local range(i32 0, 2) i32 @is_sparse_index_allowed(ptr noundef %0, i32 noundef %1) local_unnamed_addr #0 {
  %3 = load i32, ptr @core_apply_sparse_checkout, align 4, !tbaa !28
  %4 = icmp ne i32 %3, 0
  %5 = load i32, ptr @core_sparse_checkout_cone, align 4
  %6 = icmp ne i32 %5, 0
  %or.cond = select i1 %4, i1 %6, i1 false
  br i1 %or.cond, label %7, label %.thread

7:                                                ; preds = %2
  %8 = and i32 %1, 1
  %.not = icmp eq i32 %8, 0
  br i1 %.not, label %9, label %29

9:                                                ; preds = %7
  %10 = getelementptr inbounds nuw i8, ptr %0, i64 40
  %11 = load ptr, ptr %10, align 8, !tbaa !29
  %.not13 = icmp eq ptr %11, null
  br i1 %.not13, label %12, label %.thread

12:                                               ; preds = %9
  %13 = tail call i32 @git_env_bool(ptr noundef nonnull @.str.3, i32 noundef 0) #12
  %.not14 = icmp eq i32 %13, 0
  br i1 %.not14, label %14, label %.thread

14:                                               ; preds = %12
  %15 = tail call i32 @git_env_bool(ptr noundef nonnull @.str.4, i32 noundef -1) #12
  %16 = icmp sgt i32 %15, -1
  br i1 %16, label %17, label %23

17:                                               ; preds = %14
  %18 = getelementptr inbounds nuw i8, ptr %0, i64 240
  %19 = load ptr, ptr %18, align 8, !tbaa !42
  %.not.i = icmp eq i32 %15, 0
  %20 = select i1 %.not.i, ptr @.str.2, ptr @.str.1
  %21 = tail call i32 @repo_config_set_worktree_gently(ptr noundef %19, ptr noundef nonnull @.str, ptr noundef nonnull %20) #12
  tail call void @prepare_repo_settings(ptr noundef %19) #12
  %22 = getelementptr inbounds nuw i8, ptr %19, i64 284
  store i32 %15, ptr %22, align 4, !tbaa !4
  br label %23

23:                                               ; preds = %14, %17
  %24 = getelementptr inbounds nuw i8, ptr %0, i64 240
  %25 = load ptr, ptr %24, align 8, !tbaa !42
  tail call void @prepare_repo_settings(ptr noundef %25) #12
  %26 = load ptr, ptr %24, align 8, !tbaa !42
  %27 = getelementptr inbounds nuw i8, ptr %26, i64 284
  %28 = load i32, ptr %27, align 4, !tbaa !4
  %.not15.not = icmp eq i32 %28, 0
  br i1 %.not15.not, label %.thread, label %29

29:                                               ; preds = %23, %7
  %30 = tail call i32 @init_sparse_checkout_patterns(ptr noundef %0) #12
  %.not16 = icmp eq i32 %30, 0
  br i1 %.not16, label %31, label %.thread

31:                                               ; preds = %29
  %32 = getelementptr inbounds nuw i8, ptr %0, i64 248
  %33 = load ptr, ptr %32, align 8, !tbaa !43
  %34 = getelementptr inbounds nuw i8, ptr %33, i64 24
  %35 = load i32, ptr %34, align 8, !tbaa !44
  %.not17 = icmp ne i32 %35, 0
  %.18 = zext i1 %.not17 to i32
  br label %.thread

.thread:                                          ; preds = %9, %12, %31, %29, %23, %2
  %.011 = phi i32 [ 0, %23 ], [ 0, %2 ], [ 0, %29 ], [ %.18, %31 ], [ 0, %12 ], [ 0, %9 ]
  ret i32 %.011
}